target datalayout = "e-m:e-p270:32:32-p271:32:32-p272:64:64-i64:64-i128:128-f80:128-n8:16:32:64-S128"
target triple = "x86_64-pc-linux-gnu"

%"class.ncnn::Mat" = type { ptr, ptr, i64, i32, ptr, i32, i32, i32, i32, i32, i64 }

; Function Attrs: alwaysinline mustprogress nounwind uwtable
define internal noundef nofpclass(nan inf) <4 x float> @_ZL11_mm_load_psPKf(ptr noundef %0) #19 {
  %2 = alloca ptr, align 8
  store ptr %0, ptr %2, align 8, !tbaa !69
  %3 = load ptr, ptr %2, align 8, !tbaa !69
  %4 = load <4 x float>, ptr %3, align 16, !tbaa !56
  ret <4 x float> %4
}

; Function Attrs: alwaysinline mustprogress nounwind uwtable
define internal void @_ZL12_mm_store_psPfDv4_f(ptr noundef %0, <4 x float> noundef nofpclass(nan inf) %1) #19 {
  %3 = alloca ptr, align 8
  %4 = alloca <4 x float>, align 16
  store ptr %0, ptr %3, align 8, !tbaa !69
  store <4 x float> %1, ptr %4, align 16, !tbaa !56
  %5 = load <4 x float>, ptr %4, align 16, !tbaa !56
  %6 = load ptr, ptr %3, align 8, !tbaa !69
  store <4 x float> %5, ptr %6, align 16, !tbaa !56
  ret void
}

; Function Attrs: alwaysinline mustprogress nounwind uwtable
define linkonce_odr hidden noundef ptr @_ZN4ncnn3MatcvPT_IfEEv(ptr noundef nonnull align 8 dereferenceable(72) %0) #6 comdat align 2 {
  %2 = alloca ptr, align 8
  store ptr %0, ptr %2, align 8, !tbaa !13
  %3 = load ptr, ptr %2, align 8
  %4 = getelementptr inbounds nuw %"class.ncnn::Mat", ptr %3, i32 0, i32 0
  %5 = load ptr, ptr %4, align 8, !tbaa !64
  ret ptr %5
}

; Function Attrs: alwaysinline mustprogress nounwind uwtable
define linkonce_odr hidden noundef ptr @_ZNK4ncnn3MatcvPKT_IfEEv(ptr noundef nonnull align 8 dereferenceable(72) %0) #6 comdat align 2 {
  %2 = alloca ptr, align 8
  store ptr %0, ptr %2, align 8, !tbaa !13
  %3 = load ptr, ptr %2, align 8
  %4 = getelementptr inbounds nuw %"class.ncnn::Mat", ptr %3, i32 0, i32 0
  %5 = load ptr, ptr %4, align 8, !tbaa !64
  ret ptr %5
}

; Function Attrs: mustprogress uwtable
define internal void @_ZN4ncnnL26padding_constant_pack4_sseERKNS_3MatERS0_iiiiRKDv4_f(ptr noundef nonnull align 8 dereferenceable(72) %0, ptr noundef nonnull align 8 dereferenceable(72) %1, i32 noundef %2, i32 noundef %3, i32 noundef %4, i32 noundef %5, ptr noundef nonnull align 16 dereferenceable(16) %6) #20 {
  %8 = alloca ptr, align 8
  %9 = alloca ptr, align 8
  %10 = alloca i32, align 4
  %11 = alloca i32, align 4
  %12 = alloca i32, align 4
  %13 = alloca i32, align 4
  %14 = alloca ptr, align 8
  %15 = alloca ptr, align 8
  %16 = alloca ptr, align 8
  %17 = alloca i32, align 4
  %18 = alloca i32, align 4
  %19 = alloca i32, align 4
  %20 = alloca i32, align 4
  %21 = alloca i32, align 4
  %22 = alloca i32, align 4
  %23 = alloca i32, align 4
  %24 = alloca i32, align 4
  %25 = alloca i32, align 4
  store ptr %0, ptr %8, align 8, !tbaa !13
  store ptr %1, ptr %9, align 8, !tbaa !13
  store i32 %2, ptr %10, align 4, !tbaa !43
  store i32 %3, ptr %11, align 4, !tbaa !43
  store i32 %4, ptr %12, align 4, !tbaa !43
  store i32 %5, ptr %13, align 4, !tbaa !43
  store ptr %6, ptr %14, align 8, !tbaa !68
  call void @llvm.lifetime.start.p0(i64 8, ptr %15) #9
  %26 = load ptr, ptr %8, align 8, !tbaa !13
  %27 = call noundef ptr @_ZNK4ncnn3MatcvPKT_IfEEv(ptr noundef nonnull align 8 dereferenceable(72) %26)
  store ptr %27, ptr %15, align 8, !tbaa !69
  call void @llvm.lifetime.start.p0(i64 8, ptr %16) #9
  %28 = load ptr, ptr %9, align 8, !tbaa !13
  %29 = call noundef ptr @_ZN4ncnn3MatcvPT_IfEEv(ptr noundef nonnull align 8 dereferenceable(72) %28)
  store ptr %29, ptr %16, align 8, !tbaa !69
  call void @llvm.lifetime.start.p0(i64 4, ptr %17) #9
  %30 = load i32, ptr %10, align 4, !tbaa !43
  %31 = load ptr, ptr %9, align 8, !tbaa !13
  %32 = getelementptr inbounds nuw %"class.ncnn::Mat", ptr %31, i32 0, i32 6
  %33 = load i32, ptr %32, align 4, !tbaa !44
  %34 = mul nsw i32 %30, %33
  store i32 %34, ptr %17, align 4, !tbaa !43
  call void @llvm.lifetime.start.p0(i64 4, ptr %18) #9
  %35 = load i32, ptr %11, align 4, !tbaa !43
  %36 = load ptr, ptr %9, align 8, !tbaa !13
  %37 = getelementptr inbounds nuw %"class.ncnn::Mat", ptr %36, i32 0, i32 6
  %38 = load i32, ptr %37, align 4, !tbaa !44
  %39 = mul nsw i32 %35, %38
  store i32 %39, ptr %18, align 4, !tbaa !43
  call void @llvm.lifetime.start.p0(i64 4, ptr %19) #9
  store i32 0, ptr %19, align 4, !tbaa !43
  br label %40

40:                                               ; preds = %51, %7
  %41 = load i32, ptr %19, align 4, !tbaa !43
  %42 = load i32, ptr %17, align 4, !tbaa !43
  %43 = icmp slt i32 %41, %42
  br i1 %43, label %45, label %44

44:                                               ; preds = %40
  call void @llvm.lifetime.end.p0(i64 4, ptr %19) #9
  br label %54

45:                                               ; preds = %40
  %46 = load ptr, ptr %16, align 8, !tbaa !69
  %47 = load ptr, ptr %14, align 8, !tbaa !68
  %48 = load <4 x float>, ptr %47, align 16, !tbaa !56
  call void @_ZL12_mm_store_psPfDv4_f(ptr noundef %46, <4 x float> noundef nofpclass(nan inf) %48)
  %49 = load ptr, ptr %16, align 8, !tbaa !69
  %50 = getelementptr inbounds float, ptr %49, i64 4
  store ptr %50, ptr %16, align 8, !tbaa !69
  br label %51

51:                                               ; preds = %45
  %52 = load i32, ptr %19, align 4, !tbaa !43
  %53 = add nsw i32 %52, 1
  store i32 %53, ptr %19, align 4, !tbaa !43
  br label %40, !llvm.loop !140

54:                                               ; preds = %44
  call void @llvm.lifetime.start.p0(i64 4, ptr %20) #9
  store i32 0, ptr %20, align 4, !tbaa !43
  br label %55

55:                                               ; preds = %112, %54
  %56 = load i32, ptr %20, align 4, !tbaa !43
  %57 = load ptr, ptr %8, align 8, !tbaa !13
  %58 = getelementptr inbounds nuw %"class.ncnn::Mat", ptr %57, i32 0, i32 7
  %59 = load i32, ptr %58, align 8, !tbaa !45
  %60 = icmp slt i32 %56, %59
  br i1 %60, label %62, label %61

61:                                               ; preds = %55
  store i32 5, ptr %21, align 4
  call void @llvm.lifetime.end.p0(i64 4, ptr %20) #9
  br label %115

62:                                               ; preds = %55
  call void @llvm.lifetime.start.p0(i64 4, ptr %22) #9
  store i32 0, ptr %22, align 4, !tbaa !43
  br label %63

63:                                               ; preds = %74, %62
  %64 = load i32, ptr %22, align 4, !tbaa !43
  %65 = load i32, ptr %12, align 4, !tbaa !43
  %66 = icmp slt i32 %64, %65
  br i1 %66, label %68, label %67

67:                                               ; preds = %63
  store i32 8, ptr %21, align 4
  call void @llvm.lifetime.end.p0(i64 4, ptr %22) #9
  br label %77

68:                                               ; preds = %63
  %69 = load ptr, ptr %16, align 8, !tbaa !69
  %70 = load ptr, ptr %14, align 8, !tbaa !68
  %71 = load <4 x float>, ptr %70, align 16, !tbaa !56
  call void @_ZL12_mm_store_psPfDv4_f(ptr noundef %69, <4 x float> noundef nofpclass(nan inf) %71)
  %72 = load ptr, ptr %16, align 8, !tbaa !69
  %73 = getelementptr inbounds float, ptr %72, i64 4
  store ptr %73, ptr %16, align 8, !tbaa !69
  br label %74

74:                                               ; preds = %68
  %75 = load i32, ptr %22, align 4, !tbaa !43
  %76 = add nsw i32 %75, 1
  store i32 %76, ptr %22, align 4, !tbaa !43
  br label %63, !llvm.loop !141

77:                                               ; preds = %67
  call void @llvm.lifetime.start.p0(i64 4, ptr %23) #9
  store i32 0, ptr %23, align 4, !tbaa !43
  br label %78

78:                                               ; preds = %93, %77
  %79 = load i32, ptr %23, align 4, !tbaa !43
  %80 = load ptr, ptr %8, align 8, !tbaa !13
  %81 = getelementptr inbounds nuw %"class.ncnn::Mat", ptr %80, i32 0, i32 6
  %82 = load i32, ptr %81, align 4, !tbaa !44
  %83 = icmp slt i32 %79, %82
  br i1 %83, label %85, label %84

84:                                               ; preds = %78
  store i32 11, ptr %21, align 4
  call void @llvm.lifetime.end.p0(i64 4, ptr %23) #9
  br label %96

85:                                               ; preds = %78
  %86 = load ptr, ptr %16, align 8, !tbaa !69
  %87 = load ptr, ptr %15, align 8, !tbaa !69
  %88 = call fast noundef nofpclass(nan inf) <4 x float> @_ZL11_mm_load_psPKf(ptr noundef %87)
  call void @_ZL12_mm_store_psPfDv4_f(ptr noundef %86, <4 x float> noundef nofpclass(nan inf) %88)
  %89 = load ptr, ptr %15, align 8, !tbaa !69
  %90 = getelementptr inbounds float, ptr %89, i64 4
  store ptr %90, ptr %15, align 8, !tbaa !69
  %91 = load ptr, ptr %16, align 8, !tbaa !69
  %92 = getelementptr inbounds float, ptr %91, i64 4
  store ptr %92, ptr %16, align 8, !tbaa !69
  br label %93

93:                                               ; preds = %85
  %94 = load i32, ptr %23, align 4, !tbaa !43
  %95 = add nsw i32 %94, 1
  store i32 %95, ptr %23, align 4, !tbaa !43
  br label %78, !llvm.loop !142

96:                                               ; preds = %84
  call void @llvm.lifetime.start.p0(i64 4, ptr %24) #9
  store i32 0, ptr %24, align 4, !tbaa !43
  br label %97

97:                                               ; preds = %108, %96
  %98 = load i32, ptr %24, align 4, !tbaa !43
  %99 = load i32, ptr %13, align 4, !tbaa !43
  %100 = icmp slt i32 %98, %99
  br i1 %100, label %102, label %101

101:                                              ; preds = %97
  store i32 14, ptr %21, align 4
  call void @llvm.lifetime.end.p0(i64 4, ptr %24) #9
  br label %111

102:                                              ; preds = %97
  %103 = load ptr, ptr %16, align 8, !tbaa !69
  %104 = load ptr, ptr %14, align 8, !tbaa !68
  %105 = load <4 x float>, ptr %104, align 16, !tbaa !56
  call void @_ZL12_mm_store_psPfDv4_f(ptr noundef %103, <4 x float> noundef nofpclass(nan inf) %105)
  %106 = load ptr, ptr %16, align 8, !tbaa !69
  %107 = getelementptr inbounds float, ptr %106, i64 4
  store ptr %107, ptr %16, align 8, !tbaa !69
  br label %108

108:                                              ; preds = %102
  %109 = load i32, ptr %24, align 4, !tbaa !43
  %110 = add nsw i32 %109, 1
  store i32 %110, ptr %24, align 4, !tbaa !43
  br label %97, !llvm.loop !143

111:                                              ; preds = %101
  br label %112

112:                                              ; preds = %111
  %113 = load i32, ptr %20, align 4, !tbaa !43
  %114 = add nsw i32 %113, 1
  store i32 %114, ptr %20, align 4, !tbaa !43
  br label %55, !llvm.loop !144

115:                                              ; preds = %61
  call void @llvm.lifetime.start.p0(i64 4, ptr %25) #9
  store i32 0, ptr %25, align 4, !tbaa !43
  br label %116

116:                                              ; preds = %127, %115
  %117 = load i32, ptr %25, align 4, !tbaa !43
  %118 = load i32, ptr %18, align 4, !tbaa !43
  %119 = icmp slt i32 %117, %118
  br i1 %119, label %121, label %120

120:                                              ; preds = %116
  store i32 17, ptr %21, align 4
  call void @llvm.lifetime.end.p0(i64 4, ptr %25) #9
  br label %130

121:                                              ; preds = %116
  %122 = load ptr, ptr %16, align 8, !tbaa !69
  %123 = load ptr, ptr %14, align 8, !tbaa !68
  %124 = load <4 x float>, ptr %123, align 16, !tbaa !56
  call void @_ZL12_mm_store_psPfDv4_f(ptr noundef %122, <4 x float> noundef nofpclass(nan inf) %124)
  %125 = load ptr, ptr %16, align 8, !tbaa !69
  %126 = getelementptr inbounds float, ptr %125, i64 4
  store ptr %126, ptr %16, align 8, !tbaa !69
  br label %127

127:                                              ; preds = %121
  %128 = load i32, ptr %25, align 4, !tbaa !43
  %129 = add nsw i32 %128, 1
  store i32 %129, ptr %25, align 4, !tbaa !43
  br label %116, !llvm.loop !145

130:                                              ; preds = %120
  call void @llvm.lifetime.end.p0(i64 4, ptr %18) #9
  call void @llvm.lifetime.end.p0(i64 4, ptr %17) #9
  call void @llvm.lifetime.end.p0(i64 8, ptr %16) #9
  call void @llvm.lifetime.end.p0(i64 8, ptr %15) #9
  ret void
}