; Function Attrs: mustprogress nofree norecurse nosync nounwind memory(readwrite, inaccessiblemem: none) uwtable
define internal fastcc void @_ZN4ncnnL26padding_constant_pack4_sseERKNS_3MatERS0_iiiiRKDv4_f(ptr noundef nonnull readonly align 8 captures(none) dereferenceable(72) %0, ptr writeonly captures(none) %.0.val, i32 %.44.val, i32 noundef %1, i32 noundef %2, i32 noundef %3, i32 noundef %4, <4 x float> %.0.val1) unnamed_addr #12 {
  %6 = load ptr, ptr %0, align 8, !tbaa !16
  %7 = mul nsw i32 %1, %.44.val
  %8 = mul i32 %2, %.44.val
  %9 = icmp sgt i32 %7, 0
  br i1 %9, label %.lr.ph, label %.preheader6

.preheader6:                                      ; preds = %.lr.ph, %5
  %.045.lcssa = phi ptr [ %.0.val, %5 ], [ %48, %.lr.ph ]
  %10 = getelementptr inbounds nuw i8, ptr %0, i64 48
  %11 = load i32, ptr %10, align 8, !tbaa !39
  %12 = icmp sgt i32 %11, 0
  br i1 %12, label %.preheader5.lr.ph, label %.preheader

.preheader5.lr.ph:                                ; preds = %.preheader6
  %13 = icmp sgt i32 %3, 0
  %14 = getelementptr inbounds nuw i8, ptr %0, i64 44
  %15 = icmp sgt i32 %4, 0
  br i1 %13, label %.preheader5.us, label %.preheader5.lr.ph.split

.preheader5.us:                                   ; preds = %.preheader5.lr.ph, %._crit_edge.us
  %.04225.us = phi i32 [ %16, %._crit_edge.us ], [ 0, %.preheader5.lr.ph ]
  %.04424.us = phi ptr [ %.1.lcssa.us, %._crit_edge.us ], [ %6, %.preheader5.lr.ph ]
  %.14623.us = phi ptr [ %.4.lcssa.us, %._crit_edge.us ], [ %.045.lcssa, %.preheader5.lr.ph ]
  br label %27

._crit_edge.us:                                   ; preds = %.lr.ph21.us, %.preheader3.us
  %.4.lcssa.us = phi ptr [ %.3.lcssa.us, %.preheader3.us ], [ %19, %.lr.ph21.us ]
  %16 = add nuw nsw i32 %.04225.us, 1
  %17 = load i32, ptr %10, align 8, !tbaa !39
  %18 = icmp slt i32 %16, %17
  br i1 %18, label %.preheader5.us, label %.preheader, !llvm.loop !163

.lr.ph21.us:                                      ; preds = %.preheader3.us, %.lr.ph21.us
  %.03920.us = phi i32 [ %20, %.lr.ph21.us ], [ 0, %.preheader3.us ]
  %.419.us = phi ptr [ %19, %.lr.ph21.us ], [ %.3.lcssa.us, %.preheader3.us ]
  store <4 x float> %.0.val1, ptr %.419.us, align 16, !tbaa !65
  %19 = getelementptr inbounds nuw i8, ptr %.419.us, i64 16
  %20 = add nuw nsw i32 %.03920.us, 1
  %exitcond75.not = icmp eq i32 %20, %4
  br i1 %exitcond75.not, label %._crit_edge.us, label %.lr.ph21.us, !llvm.loop !164

.lr.ph16.us:                                      ; preds = %..preheader4_crit_edge.us, %.lr.ph16.us
  %.04015.us = phi i32 [ %24, %.lr.ph16.us ], [ 0, %..preheader4_crit_edge.us ]
  %.114.us = phi ptr [ %22, %.lr.ph16.us ], [ %.04424.us, %..preheader4_crit_edge.us ]
  %.313.us = phi ptr [ %23, %.lr.ph16.us ], [ %28, %..preheader4_crit_edge.us ]
  %21 = load <4 x float>, ptr %.114.us, align 16, !tbaa !65
  store <4 x float> %21, ptr %.313.us, align 16, !tbaa !65
  %22 = getelementptr inbounds nuw i8, ptr %.114.us, i64 16
  %23 = getelementptr inbounds nuw i8, ptr %.313.us, i64 16
  %24 = add nuw nsw i32 %.04015.us, 1
  %25 = load i32, ptr %14, align 4, !tbaa !38
  %26 = icmp slt i32 %24, %25
  br i1 %26, label %.lr.ph16.us, label %.preheader3.us, !llvm.loop !165

27:                                               ; preds = %.preheader5.us, %27
  %.04110.us = phi i32 [ 0, %.preheader5.us ], [ %29, %27 ]
  %.29.us = phi ptr [ %.14623.us, %.preheader5.us ], [ %28, %27 ]
  store <4 x float> %.0.val1, ptr %.29.us, align 16, !tbaa !65
  %28 = getelementptr inbounds nuw i8, ptr %.29.us, i64 16
  %29 = add nuw nsw i32 %.04110.us, 1
  %exitcond74.not = icmp eq i32 %29, %3
  br i1 %exitcond74.not, label %..preheader4_crit_edge.us, label %27, !llvm.loop !166

.preheader3.us:                                   ; preds = %.lr.ph16.us, %..preheader4_crit_edge.us
  %.3.lcssa.us = phi ptr [ %28, %..preheader4_crit_edge.us ], [ %23, %.lr.ph16.us ]
  %.1.lcssa.us = phi ptr [ %.04424.us, %..preheader4_crit_edge.us ], [ %22, %.lr.ph16.us ]
  br i1 %15, label %.lr.ph21.us, label %._crit_edge.us

..preheader4_crit_edge.us:                        ; preds = %27
  %30 = load i32, ptr %14, align 4, !tbaa !38
  %31 = icmp sgt i32 %30, 0
  br i1 %31, label %.lr.ph16.us, label %.preheader3.us

.preheader5.lr.ph.split:                          ; preds = %.preheader5.lr.ph
  br i1 %15, label %.preheader5.us27, label %.preheader5.lr.ph.split.split

.preheader5.us27:                                 ; preds = %.preheader5.lr.ph.split, %._crit_edge.us45
  %.04225.us28 = phi i32 [ %43, %._crit_edge.us45 ], [ 0, %.preheader5.lr.ph.split ]
  %.04424.us29 = phi ptr [ %.1.lcssa.us39, %._crit_edge.us45 ], [ %6, %.preheader5.lr.ph.split ]
  %.14623.us30 = phi ptr [ %35, %._crit_edge.us45 ], [ %.045.lcssa, %.preheader5.lr.ph.split ]
  %32 = load i32, ptr %14, align 4, !tbaa !38
  %33 = icmp sgt i32 %32, 0
  br i1 %33, label %.lr.ph16.us40, label %.preheader3.us37

34:                                               ; preds = %.preheader3.us37, %34
  %.03920.us32 = phi i32 [ 0, %.preheader3.us37 ], [ %36, %34 ]
  %.419.us33 = phi ptr [ %.3.lcssa.us38, %.preheader3.us37 ], [ %35, %34 ]
  store <4 x float> %.0.val1, ptr %.419.us33, align 16, !tbaa !65
  %35 = getelementptr inbounds nuw i8, ptr %.419.us33, i64 16
  %36 = add nuw nsw i32 %.03920.us32, 1
  %exitcond73.not = icmp eq i32 %36, %4
  br i1 %exitcond73.not, label %._crit_edge.us45, label %34, !llvm.loop !164

.lr.ph16.us40:                                    ; preds = %.preheader5.us27, %.lr.ph16.us40
  %.04015.us34 = phi i32 [ %40, %.lr.ph16.us40 ], [ 0, %.preheader5.us27 ]
  %.114.us35 = phi ptr [ %38, %.lr.ph16.us40 ], [ %.04424.us29, %.preheader5.us27 ]
  %.313.us36 = phi ptr [ %39, %.lr.ph16.us40 ], [ %.14623.us30, %.preheader5.us27 ]
  %37 = load <4 x float>, ptr %.114.us35, align 16, !tbaa !65
  store <4 x float> %37, ptr %.313.us36, align 16, !tbaa !65
  %38 = getelementptr inbounds nuw i8, ptr %.114.us35, i64 16
  %39 = getelementptr inbounds nuw i8, ptr %.313.us36, i64 16
  %40 = add nuw nsw i32 %.04015.us34, 1
  %41 = load i32, ptr %14, align 4, !tbaa !38
  %42 = icmp slt i32 %40, %41
  br i1 %42, label %.lr.ph16.us40, label %.preheader3.us37, !llvm.loop !165

.preheader3.us37:                                 ; preds = %.lr.ph16.us40, %.preheader5.us27
  %.3.lcssa.us38 = phi ptr [ %.14623.us30, %.preheader5.us27 ], [ %39, %.lr.ph16.us40 ]
  %.1.lcssa.us39 = phi ptr [ %.04424.us29, %.preheader5.us27 ], [ %38, %.lr.ph16.us40 ]
  br label %34

._crit_edge.us45:                                 ; preds = %34
  %43 = add nuw nsw i32 %.04225.us28, 1
  %44 = load i32, ptr %10, align 8, !tbaa !39
  %45 = icmp slt i32 %43, %44
  br i1 %45, label %.preheader5.us27, label %.preheader, !llvm.loop !163

.preheader5.lr.ph.split.split:                    ; preds = %.preheader5.lr.ph.split
  %46 = load i32, ptr %14, align 4, !tbaa !38
  %47 = icmp sgt i32 %46, 0
  br i1 %47, label %.preheader5, label %.preheader

.lr.ph:                                           ; preds = %5, %.lr.ph
  %.0438 = phi i32 [ %49, %.lr.ph ], [ 0, %5 ]
  %.0457 = phi ptr [ %48, %.lr.ph ], [ %.0.val, %5 ]
  store <4 x float> %.0.val1, ptr %.0457, align 16, !tbaa !65
  %48 = getelementptr inbounds nuw i8, ptr %.0457, i64 16
  %49 = add nuw nsw i32 %.0438, 1
  %exitcond.not = icmp eq i32 %49, %7
  br i1 %exitcond.not, label %.preheader6, label %.lr.ph, !llvm.loop !167

.preheader5:                                      ; preds = %.preheader5.lr.ph.split.split, %.preheader3
  %50 = phi i32 [ %54, %.preheader3 ], [ %11, %.preheader5.lr.ph.split.split ]
  %51 = phi i32 [ %55, %.preheader3 ], [ %46, %.preheader5.lr.ph.split.split ]
  %.04225 = phi i32 [ %56, %.preheader3 ], [ 0, %.preheader5.lr.ph.split.split ]
  %.04424 = phi ptr [ %.1.lcssa, %.preheader3 ], [ %6, %.preheader5.lr.ph.split.split ]
  %.14623 = phi ptr [ %.3.lcssa, %.preheader3 ], [ %.045.lcssa, %.preheader5.lr.ph.split.split ]
  %52 = icmp sgt i32 %51, 0
  br i1 %52, label %.lr.ph16, label %.preheader3

.preheader:                                       ; preds = %.preheader3, %._crit_edge.us45, %._crit_edge.us, %.preheader5.lr.ph.split.split, %.preheader6
  %.146.lcssa = phi ptr [ %.045.lcssa, %.preheader6 ], [ %.045.lcssa, %.preheader5.lr.ph.split.split ], [ %.4.lcssa.us, %._crit_edge.us ], [ %35, %._crit_edge.us45 ], [ %.3.lcssa, %.preheader3 ]
  %53 = icmp sgt i32 %8, 0
  br i1 %53, label %.lr.ph60, label %._crit_edge

.preheader3.loopexit:                             ; preds = %.lr.ph16
  %.pre = load i32, ptr %10, align 8, !tbaa !39
  br label %.preheader3

.preheader3:                                      ; preds = %.preheader3.loopexit, %.preheader5
  %54 = phi i32 [ %50, %.preheader5 ], [ %.pre, %.preheader3.loopexit ]
  %55 = phi i32 [ %51, %.preheader5 ], [ %62, %.preheader3.loopexit ]
  %.3.lcssa = phi ptr [ %.14623, %.preheader5 ], [ %60, %.preheader3.loopexit ]
  %.1.lcssa = phi ptr [ %.04424, %.preheader5 ], [ %59, %.preheader3.loopexit ]
  %56 = add nuw nsw i32 %.04225, 1
  %57 = icmp slt i32 %56, %54
  br i1 %57, label %.preheader5, label %.preheader, !llvm.loop !168

.lr.ph16:                                         ; preds = %.preheader5, %.lr.ph16
  %.04015 = phi i32 [ %61, %.lr.ph16 ], [ 0, %.preheader5 ]
  %.114 = phi ptr [ %59, %.lr.ph16 ], [ %.04424, %.preheader5 ]
  %.313 = phi ptr [ %60, %.lr.ph16 ], [ %.14623, %.preheader5 ]
  %58 = load <4 x float>, ptr %.114, align 16, !tbaa !65
  store <4 x float> %58, ptr %.313, align 16, !tbaa !65
  %59 = getelementptr inbounds nuw i8, ptr %.114, i64 16
  %60 = getelementptr inbounds nuw i8, ptr %.313, i64 16
  %61 = add nuw nsw i32 %.04015, 1
  %62 = load i32, ptr %14, align 4, !tbaa !38
  %63 = icmp slt i32 %61, %62
  br i1 %63, label %.lr.ph16, label %.preheader3.loopexit, !llvm.loop !165

._crit_edge:                                      ; preds = %.lr.ph60, %.preheader
  ret void

.lr.ph60:                                         ; preds = %.preheader, %.lr.ph60
  %.059 = phi i32 [ %65, %.lr.ph60 ], [ 0, %.preheader ]
  %.558 = phi ptr [ %64, %.lr.ph60 ], [ %.146.lcssa, %.preheader ]
  store <4 x float> %.0.val1, ptr %.558, align 16, !tbaa !65
  %64 = getelementptr inbounds nuw i8, ptr %.558, i64 16
  %65 = add nuw nsw i32 %.059, 1
  %exitcond76.not = icmp eq i32 %65, %8
  br i1 %exitcond76.not, label %._crit_edge, label %.lr.ph60, !llvm.loop !169
}